; Function Attrs: nofree norecurse nosync nounwind null_pointer_is_valid sspstrong memory(none) uwtable
define internal range(i32 -8, 1) i32 @erf_dump_can_write_encap(i32 noundef %0) #12 {
  %2 = icmp eq i32 %0, -1
  br i1 %2, label %10, label %.preheader

3:                                                ; preds = %.preheader
  %indvars.iv.next.i = add nuw nsw i64 %indvars.iv.i, 1
  %exitcond.not.i = icmp eq i64 %indvars.iv.next.i, 8
  br i1 %exitcond.not.i, label %wtap_wtap_encap_to_erf_encap.exit.thread, label %.preheader, !llvm.loop !35

.preheader:                                       ; preds = %1, %3
  %indvars.iv.i = phi i64 [ %indvars.iv.next.i, %3 ], [ 0, %1 ]
  %4 = getelementptr [8 x %struct.anon.5], ptr @erf_to_wtap_map, i64 0, i64 %indvars.iv.i
  %5 = getelementptr inbounds nuw i8, ptr %4, i64 4
  %6 = load i32, ptr %5, align 4
  %7 = icmp eq i32 %6, %0
  br i1 %7, label %wtap_wtap_encap_to_erf_encap.exit, label %3

wtap_wtap_encap_to_erf_encap.exit:                ; preds = %.preheader
  %8 = load i32, ptr %4, align 8
  %.fr = freeze i32 %8
  %9 = icmp eq i32 %.fr, -1
  br i1 %9, label %wtap_wtap_encap_to_erf_encap.exit.thread, label %10

wtap_wtap_encap_to_erf_encap.exit.thread:         ; preds = %3, %wtap_wtap_encap_to_erf_encap.exit
  br label %10

10:                                               ; preds = %wtap_wtap_encap_to_erf_encap.exit.thread, %wtap_wtap_encap_to_erf_encap.exit, %1
  %.0 = phi i32 [ 0, %1 ], [ -8, %wtap_wtap_encap_to_erf_encap.exit.thread ], [ 0, %wtap_wtap_encap_to_erf_encap.exit ]
  ret i32 %.0
}